; ModuleID = '4/1049.cpp'
source_filename = "4/1049.cpp"
target datalayout = "e-m:e-p270:32:32-p271:32:32-p272:64:64-i64:64-f80:128-n8:16:32:64-S128"
target triple = "x86_64-pc-linux-gnu"

%"class.std::ios_base::Init" = type { i8 }
%"class.std::basic_istream" = type { i32 (...)**, i64, %"class.std::basic_ios" }
%"class.std::basic_ios" = type { %"class.std::ios_base", %"class.std::basic_ostream"*, i8, i8, %"class.std::basic_streambuf"*, %"class.std::ctype"*, %"class.std::num_put"*, %"class.std::num_get"* }
%"class.std::ios_base" = type { i32 (...)**, i64, i64, i32, i32, i32, %"struct.std::ios_base::_Callback_list"*, %"struct.std::ios_base::_Words", [8 x %"struct.std::ios_base::_Words"], i32, %"struct.std::ios_base::_Words"*, %"class.std::locale" }
%"struct.std::ios_base::_Callback_list" = type { %"struct.std::ios_base::_Callback_list"*, void (i32, %"class.std::ios_base"*, i32)*, i32, i32 }
%"struct.std::ios_base::_Words" = type { i8*, i64 }
%"class.std::locale" = type { %"class.std::locale::_Impl"* }
%"class.std::locale::_Impl" = type { i32, %"class.std::locale::facet"**, i64, %"class.std::locale::facet"**, i8** }
%"class.std::locale::facet" = type <{ i32 (...)**, i32, [4 x i8] }>
%"class.std::basic_ostream" = type { i32 (...)**, %"class.std::basic_ios" }
%"class.std::basic_streambuf" = type { i32 (...)**, i8*, i8*, i8*, i8*, i8*, i8*, %"class.std::locale" }
%"class.std::ctype" = type <{ %"class.std::locale::facet.base", [4 x i8], %struct.__locale_struct*, i8, [7 x i8], i32*, i32*, i16*, i8, [256 x i8], [256 x i8], i8, [6 x i8] }>
%"class.std::locale::facet.base" = type <{ i32 (...)**, i32 }>
%struct.__locale_struct = type { [13 x %struct.__locale_data*], i16*, i32*, i32*, [13 x i8*] }
%struct.__locale_data = type opaque
%"class.std::num_put" = type { %"class.std::locale::facet.base", [4 x i8] }
%"class.std::num_get" = type { %"class.std::locale::facet.base", [4 x i8] }

@_ZStL8__ioinit = internal global %"class.std::ios_base::Init" zeroinitializer, align 1
@__dso_handle = external hidden global i8
@_ZSt3cin = external dso_local global %"class.std::basic_istream", align 8
@__const.main.x = private unnamed_addr constant [3 x i32] [i32 0, i32 0, i32 1], align 4
@__const.main.y = private unnamed_addr constant [3 x i32] [i32 0, i32 1, i32 0], align 4
@_ZSt4cout = external dso_local global %"class.std::basic_ostream", align 8
@llvm.global_ctors = appending global [1 x { i32, void ()*, i8* }] [{ i32, void ()*, i8* } { i32 65535, void ()* @_GLOBAL__sub_I_1049.cpp, i8* null }]

; Function Attrs: noinline uwtable
define internal void @__cxx_global_var_init() #0 section ".text.startup" {
  call void @_ZNSt8ios_base4InitC1Ev(%"class.std::ios_base::Init"* @_ZStL8__ioinit)
  %1 = call i32 @__cxa_atexit(void (i8*)* bitcast (void (%"class.std::ios_base::Init"*)* @_ZNSt8ios_base4InitD1Ev to void (i8*)*), i8* getelementptr inbounds (%"class.std::ios_base::Init", %"class.std::ios_base::Init"* @_ZStL8__ioinit, i32 0, i32 0), i8* @__dso_handle) #3
  ret void
}

declare dso_local void @_ZNSt8ios_base4InitC1Ev(%"class.std::ios_base::Init"*) unnamed_addr #1

; Function Attrs: nounwind
declare dso_local void @_ZNSt8ios_base4InitD1Ev(%"class.std::ios_base::Init"*) unnamed_addr #2

; Function Attrs: nounwind
declare dso_local i32 @__cxa_atexit(void (i8*)*, i8*, i8*) #3

; Function Attrs: noinline norecurse uwtable
define dso_local i32 @main() #4 {
  %1 = alloca i32, align 4
  %2 = alloca i32, align 4
  %3 = alloca i32, align 4
  %4 = alloca i8*, align 8
  %5 = alloca i64, align 8
  %6 = alloca i64, align 8
  %7 = alloca i32, align 4
  %8 = alloca i32, align 4
  %9 = alloca i32, align 4
  %10 = alloca [3 x i32], align 4
  %11 = alloca [3 x i32], align 4
  %12 = alloca i32, align 4
  %13 = alloca i32, align 4
  %14 = alloca i32, align 4
  %15 = alloca i32, align 4
  %16 = alloca i32, align 4
  %17 = alloca i32, align 4
  %18 = alloca i32, align 4
  store i32 0, i32* %1, align 4
  %19 = call dereferenceable(280) %"class.std::basic_istream"* @_ZNSirsERi(%"class.std::basic_istream"* @_ZSt3cin, i32* dereferenceable(4) %2)
  %20 = call dereferenceable(280) %"class.std::basic_istream"* @_ZNSirsERi(%"class.std::basic_istream"* %19, i32* dereferenceable(4) %3)
  %21 = load i32, i32* %2, align 4
  %22 = add nsw i32 %21, 1
  %23 = zext i32 %22 to i64
  %24 = load i32, i32* %3, align 4
  %25 = add nsw i32 %24, 1
  %26 = zext i32 %25 to i64
  %27 = call i8* @llvm.stacksave()
  store i8* %27, i8** %4, align 8
  %28 = mul nuw i64 %23, %26
  %29 = alloca i32, i64 %28, align 16
  store i64 %23, i64* %5, align 8
  store i64 %26, i64* %6, align 8
  store i32 1, i32* %7, align 4
  br label %30

30:                                               ; preds = %52, %0
  %31 = load i32, i32* %7, align 4
  %32 = load i32, i32* %2, align 4
  %33 = icmp sle i32 %31, %32
  br i1 %33, label %34, label %55

34:                                               ; preds = %30
  store i32 1, i32* %8, align 4
  br label %35

35:                                               ; preds = %48, %34
  %36 = load i32, i32* %8, align 4
  %37 = load i32, i32* %3, align 4
  %38 = icmp sle i32 %36, %37
  br i1 %38, label %39, label %51

39:                                               ; preds = %35
  %40 = load i32, i32* %7, align 4
  %41 = sext i32 %40 to i64
  %42 = mul nsw i64 %41, %26
  %43 = getelementptr inbounds i32, i32* %29, i64 %42
  %44 = load i32, i32* %8, align 4
  %45 = sext i32 %44 to i64
  %46 = getelementptr inbounds i32, i32* %43, i64 %45
  %47 = call dereferenceable(280) %"class.std::basic_istream"* @_ZNSirsERi(%"class.std::basic_istream"* @_ZSt3cin, i32* dereferenceable(4) %46)
  br label %48

48:                                               ; preds = %39
  %49 = load i32, i32* %8, align 4
  %50 = add nsw i32 %49, 1
  store i32 %50, i32* %8, align 4
  br label %35

51:                                               ; preds = %35
  br label %52

52:                                               ; preds = %51
  %53 = load i32, i32* %7, align 4
  %54 = add nsw i32 %53, 1
  store i32 %54, i32* %7, align 4
  br label %30

55:                                               ; preds = %30
  store i32 1, i32* %9, align 4
  %56 = bitcast [3 x i32]* %10 to i8*
  call void @llvm.memcpy.p0i8.p0i8.i64(i8* align 4 %56, i8* align 4 bitcast ([3 x i32]* @__const.main.x to i8*), i64 12, i1 false)
  %57 = bitcast [3 x i32]* %11 to i8*
  call void @llvm.memcpy.p0i8.p0i8.i64(i8* align 4 %57, i8* align 4 bitcast ([3 x i32]* @__const.main.y to i8*), i64 12, i1 false)
  store i32 1, i32* %12, align 4
  store i32 1, i32* %13, align 4
  store i32 1, i32* %14, align 4
  br label %58

58:                                               ; preds = %123, %55
  %59 = load i32, i32* %9, align 4
  %60 = load i32, i32* %2, align 4
  %61 = load i32, i32* %3, align 4
  %62 = mul nsw i32 %60, %61
  %63 = icmp sle i32 %59, %62
  br i1 %63, label %64, label %126

64:                                               ; preds = %58
  %65 = load i32, i32* %12, align 4
  store i32 %65, i32* %17, align 4
  %66 = load i32, i32* %13, align 4
  store i32 %66, i32* %18, align 4
  br label %67

67:                                               ; preds = %75, %64
  %68 = load i32, i32* %17, align 4
  %69 = load i32, i32* %2, align 4
  %70 = icmp sgt i32 %68, %69
  br i1 %70, label %74, label %71

71:                                               ; preds = %67
  %72 = load i32, i32* %18, align 4
  %73 = icmp slt i32 %72, 1
  br i1 %73, label %74, label %75

74:                                               ; preds = %71, %67
  br label %92

75:                                               ; preds = %71
  %76 = load i32, i32* %17, align 4
  %77 = sext i32 %76 to i64
  %78 = mul nsw i64 %77, %26
  %79 = getelementptr inbounds i32, i32* %29, i64 %78
  %80 = load i32, i32* %18, align 4
  %81 = sext i32 %80 to i64
  %82 = getelementptr inbounds i32, i32* %79, i64 %81
  %83 = load i32, i32* %82, align 4
  %84 = call dereferenceable(272) %"class.std::basic_ostream"* @_ZNSolsEi(%"class.std::basic_ostream"* @_ZSt4cout, i32 %83)
  %85 = call dereferenceable(272) %"class.std::basic_ostream"* @_ZNSolsEPFRSoS_E(%"class.std::basic_ostream"* %84, %"class.std::basic_ostream"* (%"class.std::basic_ostream"*)* @_ZSt4endlIcSt11char_traitsIcEERSt13basic_ostreamIT_T0_ES6_)
  %86 = load i32, i32* %17, align 4
  %87 = add nsw i32 %86, 1
  store i32 %87, i32* %17, align 4
  %88 = load i32, i32* %18, align 4
  %89 = sub nsw i32 %88, 1
  store i32 %89, i32* %18, align 4
  %90 = load i32, i32* %9, align 4
  %91 = add nsw i32 %90, 1
  store i32 %91, i32* %9, align 4
  br label %67

92:                                               ; preds = %74
  %93 = load i32, i32* %12, align 4
  %94 = load i32, i32* %14, align 4
  %95 = sext i32 %94 to i64
  %96 = getelementptr inbounds [3 x i32], [3 x i32]* %10, i64 0, i64 %95
  %97 = load i32, i32* %96, align 4
  %98 = add nsw i32 %93, %97
  store i32 %98, i32* %15, align 4
  %99 = load i32, i32* %13, align 4
  %100 = load i32, i32* %14, align 4
  %101 = sext i32 %100 to i64
  %102 = getelementptr inbounds [3 x i32], [3 x i32]* %11, i64 0, i64 %101
  %103 = load i32, i32* %102, align 4
  %104 = add nsw i32 %99, %103
  store i32 %104, i32* %16, align 4
  %105 = load i32, i32* %16, align 4
  %106 = load i32, i32* %3, align 4
  %107 = icmp sgt i32 %105, %106
  br i1 %107, label %108, label %123

108:                                              ; preds = %92
  %109 = load i32, i32* %14, align 4
  %110 = add nsw i32 %109, 1
  store i32 %110, i32* %14, align 4
  %111 = load i32, i32* %12, align 4
  %112 = load i32, i32* %14, align 4
  %113 = sext i32 %112 to i64
  %114 = getelementptr inbounds [3 x i32], [3 x i32]* %10, i64 0, i64 %113
  %115 = load i32, i32* %114, align 4
  %116 = add nsw i32 %111, %115
  store i32 %116, i32* %15, align 4
  %117 = load i32, i32* %13, align 4
  %118 = load i32, i32* %14, align 4
  %119 = sext i32 %118 to i64
  %120 = getelementptr inbounds [3 x i32], [3 x i32]* %11, i64 0, i64 %119
  %121 = load i32, i32* %120, align 4
  %122 = add nsw i32 %117, %121
  store i32 %122, i32* %16, align 4
  br label %123

123:                                              ; preds = %108, %92
  %124 = load i32, i32* %15, align 4
  store i32 %124, i32* %12, align 4
  %125 = load i32, i32* %16, align 4
  store i32 %125, i32* %13, align 4
  br label %58

126:                                              ; preds = %58
  store i32 0, i32* %1, align 4
  %127 = load i8*, i8** %4, align 8
  call void @llvm.stackrestore(i8* %127)
  %128 = load i32, i32* %1, align 4
  ret i32 %128
}

declare dso_local dereferenceable(280) %"class.std::basic_istream"* @_ZNSirsERi(%"class.std::basic_istream"*, i32* dereferenceable(4)) #1

; Function Attrs: nounwind
declare i8* @llvm.stacksave() #3

; Function Attrs: argmemonly nounwind willreturn
declare void @llvm.memcpy.p0i8.p0i8.i64(i8* noalias nocapture writeonly, i8* noalias nocapture readonly, i64, i1 immarg) #5

declare dso_local dereferenceable(272) %"class.std::basic_ostream"* @_ZNSolsEi(%"class.std::basic_ostream"*, i32) #1

declare dso_local dereferenceable(272) %"class.std::basic_ostream"* @_ZNSolsEPFRSoS_E(%"class.std::basic_ostream"*, %"class.std::basic_ostream"* (%"class.std::basic_ostream"*)*) #1

declare dso_local dereferenceable(272) %"class.std::basic_ostream"* @_ZSt4endlIcSt11char_traitsIcEERSt13basic_ostreamIT_T0_ES6_(%"class.std::basic_ostream"* dereferenceable(272)) #1

; Function Attrs: nounwind
declare void @llvm.stackrestore(i8*) #3

; Function Attrs: noinline uwtable
define internal void @_GLOBAL__sub_I_1049.cpp() #0 section ".text.startup" {
  call void @__cxx_global_var_init()
  ret void
}


!llvm.module.flags = !{!0}
!llvm.ident = !{!1}

!0 = !{i32 1, !"wchar_size", i32 4}
!1 = !{!"clang version 10.0.0-4ubuntu1 "}
