; ModuleID = 'source-C-CXX/3/1049.cpp'
source_filename = "source-C-CXX/3/1049.cpp"
target datalayout = "e-m:e-p270:32:32-p271:32:32-p272:64:64-i64:64-f80:128-n8:16:32:64-S128"
target triple = "x86_64-pc-linux-gnu"

%"class.std::ios_base::Init" = type { i8 }
%"class.std::basic_istream" = type { i32 (...)**, i64, %"class.std::basic_ios" }
%"class.std::basic_ios" = type { %"class.std::ios_base", %"class.std::basic_ostream"*, i8, i8, %"class.std::basic_streambuf"*, %"class.std::ctype"*, %"class.std::num_put"*, %"class.std::num_get"* }
%"class.std::ios_base" = type { i32 (...)**, i64, i64, i32, i32, i32, %"struct.std::ios_base::_Callback_list"*, %"struct.std::ios_base::_Words", [8 x %"struct.std::ios_base::_Words"], i32, %"struct.std::ios_base::_Words"*, %"class.std::locale" }
%"struct.std::ios_base::_Callback_list" = type { %"struct.std::ios_base::_Callback_list"*, void (i32, %"class.std::ios_base"*, i32)*, i32, i32 }
%"struct.std::ios_base::_Words" = type { i8*, i64 }
%"class.std::locale" = type { %"class.std::locale::_Impl"* }
%"class.std::locale::_Impl" = type { i32, %"class.std::locale::facet"**, i64, %"class.std::locale::facet"**, i8** }
%"class.std::locale::facet" = type <{ i32 (...)**, i32, [4 x i8] }>
%"class.std::basic_ostream" = type { i32 (...)**, %"class.std::basic_ios" }
%"class.std::basic_streambuf" = type { i32 (...)**, i8*, i8*, i8*, i8*, i8*, i8*, %"class.std::locale" }
%"class.std::ctype" = type <{ %"class.std::locale::facet.base", [4 x i8], %struct.__locale_struct*, i8, [7 x i8], i32*, i32*, i16*, i8, [256 x i8], [256 x i8], i8, [6 x i8] }>
%"class.std::locale::facet.base" = type <{ i32 (...)**, i32 }>
%struct.__locale_struct = type { [13 x %struct.__locale_data*], i16*, i32*, i32*, [13 x i8*] }
%struct.__locale_data = type opaque
%"class.std::num_put" = type { %"class.std::locale::facet.base", [4 x i8] }
%"class.std::num_get" = type { %"class.std::locale::facet.base", [4 x i8] }

@_ZStL8__ioinit = internal global %"class.std::ios_base::Init" zeroinitializer, align 1
@__dso_handle = external hidden global i8
@_ZSt3cin = external global %"class.std::basic_istream", align 8
@__const.main.x = private unnamed_addr constant [3 x i32] [i32 0, i32 0, i32 1], align 4
@__const.main.y = private unnamed_addr constant [3 x i32] [i32 0, i32 1, i32 0], align 4
@_ZSt4cout = external global %"class.std::basic_ostream", align 8
@llvm.global_ctors = appending global [1 x { i32, void ()*, i8* }] [{ i32, void ()*, i8* } { i32 65535, void ()* @_GLOBAL__sub_I_1049.cpp, i8* null }]

declare void @_ZNSt8ios_base4InitC1Ev(%"class.std::ios_base::Init"* nonnull align 1 dereferenceable(1)) unnamed_addr #0

; Function Attrs: nounwind
declare void @_ZNSt8ios_base4InitD1Ev(%"class.std::ios_base::Init"* nonnull align 1 dereferenceable(1)) unnamed_addr #1

; Function Attrs: nofree nounwind
declare i32 @__cxa_atexit(void (i8*)*, i8*, i8*) local_unnamed_addr #2

; Function Attrs: mustprogress norecurse sspstrong uwtable
define dso_local i32 @main() local_unnamed_addr #3 {
  %1 = alloca i32, align 4
  %2 = alloca i32, align 4
  %3 = bitcast i32* %1 to i8*
  call void @llvm.lifetime.start.p0i8(i64 4, i8* nonnull %3) #8
  %4 = bitcast i32* %2 to i8*
  call void @llvm.lifetime.start.p0i8(i64 4, i8* nonnull %4) #8
  %5 = call nonnull align 8 dereferenceable(16) %"class.std::basic_istream"* @_ZNSirsERi(%"class.std::basic_istream"* nonnull align 8 dereferenceable(16) @_ZSt3cin, i32* nonnull align 4 dereferenceable(4) %1)
  %6 = call nonnull align 8 dereferenceable(16) %"class.std::basic_istream"* @_ZNSirsERi(%"class.std::basic_istream"* nonnull align 8 dereferenceable(16) %5, i32* nonnull align 4 dereferenceable(4) %2)
  %7 = load i32, i32* %1, align 4, !tbaa !5
  %8 = add nsw i32 %7, 1
  %9 = zext i32 %8 to i64
  %10 = load i32, i32* %2, align 4, !tbaa !5
  %11 = add nsw i32 %10, 1
  %12 = zext i32 %11 to i64
  %13 = call i8* @llvm.stacksave()
  %14 = mul nuw i64 %12, %9
  %15 = alloca i32, i64 %14, align 16
  %16 = load i32, i32* %1, align 4, !tbaa !5
  %17 = icmp slt i32 %16, 1
  %18 = load i32, i32* %2, align 4, !tbaa !5
  %19 = icmp slt i32 %18, 1
  %20 = select i1 %17, i1 true, i1 %19
  br i1 %20, label %27, label %21

21:                                               ; preds = %0, %34
  %22 = phi i32 [ %35, %34 ], [ %16, %0 ]
  %23 = phi i32 [ %36, %34 ], [ %18, %0 ]
  %24 = phi i64 [ %37, %34 ], [ 1, %0 ]
  %25 = mul nuw nsw i64 %24, %12
  %26 = icmp slt i32 %23, 1
  br i1 %26, label %34, label %40

27:                                               ; preds = %34, %0
  %28 = phi i32 [ %18, %0 ], [ %36, %34 ]
  %29 = phi i32 [ %16, %0 ], [ %35, %34 ]
  %30 = mul nsw i32 %28, %29
  %31 = icmp slt i32 %30, 1
  br i1 %31, label %134, label %49

32:                                               ; preds = %40
  %33 = load i32, i32* %1, align 4, !tbaa !5
  br label %34

34:                                               ; preds = %32, %21
  %35 = phi i32 [ %33, %32 ], [ %22, %21 ]
  %36 = phi i32 [ %46, %32 ], [ %23, %21 ]
  %37 = add nuw nsw i64 %24, 1
  %38 = sext i32 %35 to i64
  %39 = icmp slt i64 %24, %38
  br i1 %39, label %21, label %27, !llvm.loop !9

40:                                               ; preds = %21, %40
  %41 = phi i64 [ %45, %40 ], [ 1, %21 ]
  %42 = add nuw nsw i64 %25, %41
  %43 = getelementptr inbounds i32, i32* %15, i64 %42
  %44 = call nonnull align 8 dereferenceable(16) %"class.std::basic_istream"* @_ZNSirsERi(%"class.std::basic_istream"* nonnull align 8 dereferenceable(16) @_ZSt3cin, i32* nonnull align 4 dereferenceable(4) %43)
  %45 = add nuw nsw i64 %41, 1
  %46 = load i32, i32* %2, align 4, !tbaa !5
  %47 = sext i32 %46 to i64
  %48 = icmp slt i64 %41, %47
  br i1 %48, label %40, label %32, !llvm.loop !12

49:                                               ; preds = %27, %125
  %50 = phi i32 [ %111, %125 ], [ %28, %27 ]
  %51 = phi i32 [ %112, %125 ], [ %29, %27 ]
  %52 = phi i32 [ %126, %125 ], [ 1, %27 ]
  %53 = phi i32 [ %128, %125 ], [ 1, %27 ]
  %54 = phi i32 [ %131, %125 ], [ 1, %27 ]
  %55 = phi i32 [ %113, %125 ], [ 1, %27 ]
  %56 = icmp sgt i32 %54, %51
  %57 = icmp slt i32 %53, 1
  %58 = select i1 %56, i1 true, i1 %57
  br i1 %58, label %110, label %59

59:                                               ; preds = %49
  %60 = zext i32 %53 to i64
  %61 = sext i32 %54 to i64
  br label %62

62:                                               ; preds = %59, %96
  %63 = phi i64 [ %61, %59 ], [ %100, %96 ]
  %64 = phi i64 [ %60, %59 ], [ %107, %96 ]
  %65 = phi i32 [ %55, %59 ], [ %101, %96 ]
  %66 = mul nsw i64 %63, %12
  %67 = add nsw i64 %66, %64
  %68 = getelementptr inbounds i32, i32* %15, i64 %67
  %69 = load i32, i32* %68, align 4, !tbaa !5
  %70 = call nonnull align 8 dereferenceable(8) %"class.std::basic_ostream"* @_ZNSolsEi(%"class.std::basic_ostream"* nonnull align 8 dereferenceable(8) @_ZSt4cout, i32 %69)
  %71 = bitcast %"class.std::basic_ostream"* %70 to i8**
  %72 = load i8*, i8** %71, align 8, !tbaa !13
  %73 = getelementptr i8, i8* %72, i64 -24
  %74 = bitcast i8* %73 to i64*
  %75 = load i64, i64* %74, align 8
  %76 = bitcast %"class.std::basic_ostream"* %70 to i8*
  %77 = add nsw i64 %75, 240
  %78 = getelementptr inbounds i8, i8* %76, i64 %77
  %79 = bitcast i8* %78 to %"class.std::ctype"**
  %80 = load %"class.std::ctype"*, %"class.std::ctype"** %79, align 8, !tbaa !15
  %81 = icmp eq %"class.std::ctype"* %80, null
  br i1 %81, label %82, label %83

82:                                               ; preds = %62
  call void @_ZSt16__throw_bad_castv() #9
  unreachable

83:                                               ; preds = %62
  %84 = getelementptr inbounds %"class.std::ctype", %"class.std::ctype"* %80, i64 0, i32 8
  %85 = load i8, i8* %84, align 8, !tbaa !19
  %86 = icmp eq i8 %85, 0
  br i1 %86, label %90, label %87

87:                                               ; preds = %83
  %88 = getelementptr inbounds %"class.std::ctype", %"class.std::ctype"* %80, i64 0, i32 9, i64 10
  %89 = load i8, i8* %88, align 1, !tbaa !21
  br label %96

90:                                               ; preds = %83
  call void @_ZNKSt5ctypeIcE13_M_widen_initEv(%"class.std::ctype"* nonnull align 8 dereferenceable(570) %80)
  %91 = bitcast %"class.std::ctype"* %80 to i8 (%"class.std::ctype"*, i8)***
  %92 = load i8 (%"class.std::ctype"*, i8)**, i8 (%"class.std::ctype"*, i8)*** %91, align 8, !tbaa !13
  %93 = getelementptr inbounds i8 (%"class.std::ctype"*, i8)*, i8 (%"class.std::ctype"*, i8)** %92, i64 6
  %94 = load i8 (%"class.std::ctype"*, i8)*, i8 (%"class.std::ctype"*, i8)** %93, align 8
  %95 = call signext i8 %94(%"class.std::ctype"* nonnull align 8 dereferenceable(570) %80, i8 signext 10)
  br label %96

96:                                               ; preds = %87, %90
  %97 = phi i8 [ %89, %87 ], [ %95, %90 ]
  %98 = call nonnull align 8 dereferenceable(8) %"class.std::basic_ostream"* @_ZNSo3putEc(%"class.std::basic_ostream"* nonnull align 8 dereferenceable(8) %70, i8 signext %97)
  %99 = call nonnull align 8 dereferenceable(8) %"class.std::basic_ostream"* @_ZNSo5flushEv(%"class.std::basic_ostream"* nonnull align 8 dereferenceable(8) %98)
  %100 = add nsw i64 %63, 1
  %101 = add nsw i32 %65, 1
  %102 = load i32, i32* %1, align 4, !tbaa !5
  %103 = sext i32 %102 to i64
  %104 = icmp sge i64 %63, %103
  %105 = icmp slt i64 %64, 2
  %106 = select i1 %104, i1 true, i1 %105
  %107 = add nsw i64 %64, -1
  br i1 %106, label %108, label %62, !llvm.loop !22

108:                                              ; preds = %96
  %109 = load i32, i32* %2, align 4, !tbaa !5
  br label %110

110:                                              ; preds = %108, %49
  %111 = phi i32 [ %50, %49 ], [ %109, %108 ]
  %112 = phi i32 [ %51, %49 ], [ %102, %108 ]
  %113 = phi i32 [ %55, %49 ], [ %101, %108 ]
  %114 = sext i32 %52 to i64
  %115 = getelementptr inbounds [3 x i32], [3 x i32]* @__const.main.y, i64 0, i64 %114
  %116 = load i32, i32* %115, align 4, !tbaa !5
  %117 = add nsw i32 %116, %53
  %118 = icmp sgt i32 %117, %111
  br i1 %118, label %119, label %125

119:                                              ; preds = %110
  %120 = add nsw i32 %52, 1
  %121 = sext i32 %120 to i64
  %122 = getelementptr inbounds [3 x i32], [3 x i32]* @__const.main.y, i64 0, i64 %121
  %123 = load i32, i32* %122, align 4, !tbaa !5
  %124 = add nsw i32 %123, %53
  br label %125

125:                                              ; preds = %119, %110
  %126 = phi i32 [ %120, %119 ], [ %52, %110 ]
  %127 = phi i64 [ %121, %119 ], [ %114, %110 ]
  %128 = phi i32 [ %124, %119 ], [ %117, %110 ]
  %129 = getelementptr inbounds [3 x i32], [3 x i32]* @__const.main.x, i64 0, i64 %127
  %130 = load i32, i32* %129, align 4, !tbaa !5
  %131 = add nsw i32 %130, %54
  %132 = mul nsw i32 %111, %112
  %133 = icmp sgt i32 %113, %132
  br i1 %133, label %134, label %49, !llvm.loop !23

134:                                              ; preds = %125, %27
  call void @llvm.stackrestore(i8* %13)
  call void @llvm.lifetime.end.p0i8(i64 4, i8* nonnull %4) #8
  call void @llvm.lifetime.end.p0i8(i64 4, i8* nonnull %3) #8
  ret i32 0
}

; Function Attrs: argmemonly mustprogress nofree nosync nounwind willreturn
declare void @llvm.lifetime.start.p0i8(i64 immarg, i8* nocapture) #4

declare nonnull align 8 dereferenceable(16) %"class.std::basic_istream"* @_ZNSirsERi(%"class.std::basic_istream"* nonnull align 8 dereferenceable(16), i32* nonnull align 4 dereferenceable(4)) local_unnamed_addr #0

; Function Attrs: mustprogress nofree nosync nounwind willreturn
declare i8* @llvm.stacksave() #5

; Function Attrs: argmemonly mustprogress nofree nosync nounwind willreturn
declare void @llvm.lifetime.end.p0i8(i64 immarg, i8* nocapture) #4

declare nonnull align 8 dereferenceable(8) %"class.std::basic_ostream"* @_ZNSolsEi(%"class.std::basic_ostream"* nonnull align 8 dereferenceable(8), i32) local_unnamed_addr #0

; Function Attrs: mustprogress nofree nosync nounwind willreturn
declare void @llvm.stackrestore(i8*) #5

declare nonnull align 8 dereferenceable(8) %"class.std::basic_ostream"* @_ZNSo3putEc(%"class.std::basic_ostream"* nonnull align 8 dereferenceable(8), i8 signext) local_unnamed_addr #0

declare nonnull align 8 dereferenceable(8) %"class.std::basic_ostream"* @_ZNSo5flushEv(%"class.std::basic_ostream"* nonnull align 8 dereferenceable(8)) local_unnamed_addr #0

; Function Attrs: noreturn
declare void @_ZSt16__throw_bad_castv() local_unnamed_addr #6

declare void @_ZNKSt5ctypeIcE13_M_widen_initEv(%"class.std::ctype"* nonnull align 8 dereferenceable(570)) local_unnamed_addr #0

; Function Attrs: sspstrong uwtable
define internal void @_GLOBAL__sub_I_1049.cpp() #7 section ".text.startup" {
  tail call void @_ZNSt8ios_base4InitC1Ev(%"class.std::ios_base::Init"* nonnull align 1 dereferenceable(1) @_ZStL8__ioinit)
  %1 = tail call i32 @__cxa_atexit(void (i8*)* bitcast (void (%"class.std::ios_base::Init"*)* @_ZNSt8ios_base4InitD1Ev to void (i8*)*), i8* getelementptr inbounds (%"class.std::ios_base::Init", %"class.std::ios_base::Init"* @_ZStL8__ioinit, i64 0, i32 0), i8* nonnull @__dso_handle) #8
  ret void
}


!llvm.module.flags = !{!0, !1, !2, !3}
!llvm.ident = !{!4}

!0 = !{i32 1, !"wchar_size", i32 4}
!1 = !{i32 7, !"PIC Level", i32 2}
!2 = !{i32 7, !"PIE Level", i32 2}
!3 = !{i32 7, !"uwtable", i32 1}
!4 = !{!"clang version 13.0.0"}
!5 = !{!6, !6, i64 0}
!6 = !{!"int", !7, i64 0}
!7 = !{!"omnipotent char", !8, i64 0}
!8 = !{!"Simple C++ TBAA"}
!9 = distinct !{!9, !10, !11}
!10 = !{!"llvm.loop.mustprogress"}
!11 = !{!"llvm.loop.unswitch.partial.disable"}
!12 = distinct !{!12, !10}
!13 = !{!14, !14, i64 0}
!14 = !{!"vtable pointer", !8, i64 0}
!15 = !{!16, !17, i64 240}
!16 = !{!"_ZTSSt9basic_iosIcSt11char_traitsIcEE", !17, i64 216, !7, i64 224, !18, i64 225, !17, i64 232, !17, i64 240, !17, i64 248, !17, i64 256}
!17 = !{!"any pointer", !7, i64 0}
!18 = !{!"bool", !7, i64 0}
!19 = !{!20, !7, i64 56}
!20 = !{!"_ZTSSt5ctypeIcE", !17, i64 16, !18, i64 24, !17, i64 32, !17, i64 40, !17, i64 48, !7, i64 56, !7, i64 57, !7, i64 313, !7, i64 569}
!21 = !{!7, !7, i64 0}
!22 = distinct !{!22, !10}
!23 = distinct !{!23, !10}
